((dp1
Vcloudlib.logger
p2
(dp3
S'funcs'
p4
(lp5
sS'classes'
p6
(dp7
ssVcloudlib.messaging.mail
p8
(dp9
g4
(lp10
sg6
(dp11
ssVcloudlib.http.rest
p12
(dp13
g4
(lp14
sg6
(dp15
ssVcloudlib.tests.test_http_rest
p16
(dp17
g4
(lp18
sg6
(dp19
ssVcloudlib.utils
p20
(dp21
g4
(lp22
sg6
(dp23
ssVcloudlib.messaging
p24
(dp25
g4
(lp26
sg6
(dp27
ssVcloudlib.tests
p28
(dp29
g4
(lp30
sg6
(dp31
ssVcloudlib.tests.test_logger_logger
p32
(dp33
g4
(lp34
sg6
(dp35
ssVcloudlib
p36
(dp37
g4
(lp38
sg6
(dp39
ssVcloudlib.config_file
p40
(dp41
g4
(lp42
sg6
(dp43
ssVcloudlib.info
p44
(dp45
g4
(lp46
sg6
(dp47
ssVcloudlib.utils.basic
p48
(dp49
g4
(lp50
sg6
(dp51
ssVcloudlib.tests.test_messaging_mail
p52
(dp53
g4
(lp54
sg6
(dp55
ssVcloudlib.http
p56
(dp57
g4
(lp58
sg6
(dp59
ssVcloudlib.logger.logger
p60
(dp61
g4
(lp62
sg6
(dp63
ssVcloudlib.tests.test_utils_basic
p64
(dp65
g4
(lp66
sg6
(dp67
ssVcloudlib.tests.test_config_file
p68
(dp69
g4
(lp70
sg6
(dp71
ssVcloudlib.config_file.parse_ini
p72
(dp73
g4
(lp74
sg6
(dp75
ss(dp76
t.