(dp1
S'idavoll_http'
p2
ccopy_reg
_reconstructor
p3
(ctwisted.plugin
CachedDropin
p4
c__builtin__
object
p5
NtRp6
(dp7
S'moduleName'
p8
S'twisted.plugins.idavoll_http'
p9
sS'description'
p10
S'\nCopyright (c) 2003-2011 Ralph Meijer\nCopyright (c) 2012, 2013 J\xc3\xa9r\xc3\xb4me Poisson\n\n\nThis program is free software: you can redistribute it and/or modify\nit under the terms of the GNU Affero General Public License as published by\nthe Free Software Foundation, either version 3 of the License, or\n(at your option) any later version.\n\nThis program is distributed in the hope that it will be useful,\nbut WITHOUT ANY WARRANTY; without even the implied warranty of\nMERCHANTABILITY or FITNESS FOR A PARTICULAR PURPOSE.  See the\nGNU Affero General Public License for more details.\n\nYou should have received a copy of the GNU Affero General Public License\nalong with this program.  If not, see <http://www.gnu.org/licenses/>.\n--\n\nThis program is based on Idavoll (http://idavoll.ik.nu/),\noriginaly written by Ralph Meijer (http://ralphm.net/blog/)\nIt is sublicensed under AGPL v3 (or any later version) as allowed by the original\nlicense.\n\n--\n\nHere is a copy of the original license:\n\nCopyright (c) 2003-2011 Ralph Meijer\n\nPermission is hereby granted, free of charge, to any person obtaining\na copy of this software and associated documentation files (the\n"Software"), to deal in the Software without restriction, including\nwithout limitation the rights to use, copy, modify, merge, publish,\ndistribute, sublicense, and/or sell copies of the Software, and to\npermit persons to whom the Software is furnished to do so, subject to\nthe following conditions:\n\nThe above copyright notice and this permission notice shall be\nincluded in all copies or substantial portions of the Software.\n\nTHE SOFTWARE IS PROVIDED "AS IS", WITHOUT WARRANTY OF ANY KIND,\nEXPRESS OR IMPLIED, INCLUDING BUT NOT LIMITED TO THE WARRANTIES OF\nMERCHANTABILITY, FITNESS FOR A PARTICULAR PURPOSE AND\nNONINFRINGEMENT. IN NO EVENT SHALL THE AUTHORS OR COPYRIGHT HOLDERS BE\nLIABLE FOR ANY CLAIM, DAMAGES OR OTHER LIABILITY, WHETHER IN AN ACTION\nOF CONTRACT, TORT OR OTHERWISE, ARISING FROM, OUT OF OR IN CONNECTION\nWITH THE SOFTWARE OR THE USE OR OTHER DEALINGS IN THE SOFTWARE.\n\n'
p11
sS'plugins'
p12
(lp13
g3
(ctwisted.plugin
CachedPlugin
p14
g5
NtRp15
(dp16
S'provided'
p17
(lp18
ctwisted.plugin
IPlugin
p19
actwisted.application.service
IServiceMaker
p20
asS'dropin'
p21
g6
sS'name'
p22
S'Idavoll'
p23
sg10
S'\n    Utility class to simplify the definition of L{IServiceMaker} plugins.\n    '
p24
sbasbsS'sat_pubsub_http'
p25
g3
(g4
g5
NtRp26
(dp27
g8
S'twisted.plugins.sat_pubsub_http'
p28
sg10
S'\nCopyright (c) 2003-2011 Ralph Meijer\nCopyright (c) 2012, 2013 J\xc3\xa9r\xc3\xb4me Poisson\n\n\nThis program is free software: you can redistribute it and/or modify\nit under the terms of the GNU Affero General Public License as published by\nthe Free Software Foundation, either version 3 of the License, or\n(at your option) any later version.\n\nThis program is distributed in the hope that it will be useful,\nbut WITHOUT ANY WARRANTY; without even the implied warranty of\nMERCHANTABILITY or FITNESS FOR A PARTICULAR PURPOSE.  See the\nGNU Affero General Public License for more details.\n\nYou should have received a copy of the GNU Affero General Public License\nalong with this program.  If not, see <http://www.gnu.org/licenses/>.\n--\n\nThis program is based on Idavoll (http://idavoll.ik.nu/),\noriginaly written by Ralph Meijer (http://ralphm.net/blog/)\nIt is sublicensed under AGPL v3 (or any later version) as allowed by the original\nlicense.\n\n--\n\nHere is a copy of the original license:\n\nCopyright (c) 2003-2011 Ralph Meijer\n\nPermission is hereby granted, free of charge, to any person obtaining\na copy of this software and associated documentation files (the\n"Software"), to deal in the Software without restriction, including\nwithout limitation the rights to use, copy, modify, merge, publish,\ndistribute, sublicense, and/or sell copies of the Software, and to\npermit persons to whom the Software is furnished to do so, subject to\nthe following conditions:\n\nThe above copyright notice and this permission notice shall be\nincluded in all copies or substantial portions of the Software.\n\nTHE SOFTWARE IS PROVIDED "AS IS", WITHOUT WARRANTY OF ANY KIND,\nEXPRESS OR IMPLIED, INCLUDING BUT NOT LIMITED TO THE WARRANTIES OF\nMERCHANTABILITY, FITNESS FOR A PARTICULAR PURPOSE AND\nNONINFRINGEMENT. IN NO EVENT SHALL THE AUTHORS OR COPYRIGHT HOLDERS BE\nLIABLE FOR ANY CLAIM, DAMAGES OR OTHER LIABILITY, WHETHER IN AN ACTION\nOF CONTRACT, TORT OR OTHERWISE, ARISING FROM, OUT OF OR IN CONNECTION\nWITH THE SOFTWARE OR THE USE OR OTHER DEALINGS IN THE SOFTWARE.\n\n'
p29
sg12
(lp30
g3
(g14
g5
NtRp31
(dp32
g17
(lp33
g19
ag20
asg21
g26
sg22
g23
sg10
g24
sbasbsS'sat_pubsub'
p34
g3
(g4
g5
NtRp35
(dp36
g8
S'twisted.plugins.sat_pubsub'
p37
sg10
S'\nCopyright (c) 2003-2011 Ralph Meijer\nCopyright (c) 2012, 2013 J\xc3\xa9r\xc3\xb4me Poisson\n\n\nThis program is free software: you can redistribute it and/or modify\nit under the terms of the GNU Affero General Public License as published by\nthe Free Software Foundation, either version 3 of the License, or\n(at your option) any later version.\n\nThis program is distributed in the hope that it will be useful,\nbut WITHOUT ANY WARRANTY; without even the implied warranty of\nMERCHANTABILITY or FITNESS FOR A PARTICULAR PURPOSE.  See the\nGNU Affero General Public License for more details.\n\nYou should have received a copy of the GNU Affero General Public License\nalong with this program.  If not, see <http://www.gnu.org/licenses/>.\n--\n\nThis program is based on Idavoll (http://idavoll.ik.nu/),\noriginaly written by Ralph Meijer (http://ralphm.net/blog/)\nIt is sublicensed under AGPL v3 (or any later version) as allowed by the original\nlicense.\n\n--\n\nHere is a copy of the original license:\n\nCopyright (c) 2003-2011 Ralph Meijer\n\nPermission is hereby granted, free of charge, to any person obtaining\na copy of this software and associated documentation files (the\n"Software"), to deal in the Software without restriction, including\nwithout limitation the rights to use, copy, modify, merge, publish,\ndistribute, sublicense, and/or sell copies of the Software, and to\npermit persons to whom the Software is furnished to do so, subject to\nthe following conditions:\n\nThe above copyright notice and this permission notice shall be\nincluded in all copies or substantial portions of the Software.\n\nTHE SOFTWARE IS PROVIDED "AS IS", WITHOUT WARRANTY OF ANY KIND,\nEXPRESS OR IMPLIED, INCLUDING BUT NOT LIMITED TO THE WARRANTIES OF\nMERCHANTABILITY, FITNESS FOR A PARTICULAR PURPOSE AND\nNONINFRINGEMENT. IN NO EVENT SHALL THE AUTHORS OR COPYRIGHT HOLDERS BE\nLIABLE FOR ANY CLAIM, DAMAGES OR OTHER LIABILITY, WHETHER IN AN ACTION\nOF CONTRACT, TORT OR OTHERWISE, ARISING FROM, OUT OF OR IN CONNECTION\nWITH THE SOFTWARE OR THE USE OR OTHER DEALINGS IN THE SOFTWARE.\n\n'
p38
sg12
(lp39
g3
(g14
g5
NtRp40
(dp41
g17
(lp42
g19
ag20
asg21
g35
sg22
S'SatPubsub'
p43
sg10
S'\n    Utility class to simplify the definition of L{IServiceMaker} plugins.\n    '
p44
sbasbs.